; Function Attrs: mustprogress nofree norecurse nosync nounwind willreturn memory(argmem: read) uwtable
define dso_local noundef nonnull align 8 dereferenceable(72) ptr @_ZNK4llvm6object14WasmObjectFile16getDefinedGlobalEj(ptr nocapture noundef nonnull readonly align 8 dereferenceable(684) %0, i32 noundef %1) local_unnamed_addr #4 align 2 {
  %3 = getelementptr inbounds nuw i8, ptr %0, i64 352
  %4 = getelementptr inbounds nuw i8, ptr %0, i64 648
  %5 = load i32, ptr %4, align 8
  %6 = sub i32 %1, %5
  %7 = zext i32 %6 to i64
  %8 = load ptr, ptr %3, align 8
  %9 = getelementptr inbounds %"struct.llvm::wasm::WasmGlobal", ptr %8, i64 %7
  ret ptr %9
}